; ModuleID = '20/76.c'
source_filename = "20/76.c"
target datalayout = "e-m:e-p270:32:32-p271:32:32-p272:64:64-i64:64-f80:128-n8:16:32:64-S128"
target triple = "x86_64-pc-linux-gnu"

@.str = private unnamed_addr constant [4 x i8] c"%s\0A\00", align 1

; Function Attrs: noinline nounwind uwtable
define dso_local i32 @f(i8* %0) #0 {
  %2 = alloca i8*, align 8
  %3 = alloca i32, align 4
  %4 = alloca i32, align 4
  %5 = alloca i32, align 4
  %6 = alloca i8, align 1
  store i8* %0, i8** %2, align 8
  %7 = load i8*, i8** %2, align 8
  %8 = getelementptr inbounds i8, i8* %7, i64 0
  %9 = load i8, i8* %8, align 1
  store i8 %9, i8* %6, align 1
  %10 = load i8*, i8** %2, align 8
  %11 = call i64 @strlen(i8* %10) #3
  %12 = trunc i64 %11 to i32
  store i32 %12, i32* %4, align 4
  store i32 1, i32* %3, align 4
  br label %13

13:                                               ; preds = %36, %1
  %14 = load i32, i32* %3, align 4
  %15 = load i32, i32* %4, align 4
  %16 = sub nsw i32 %15, 4
  %17 = icmp slt i32 %14, %16
  br i1 %17, label %18, label %39

18:                                               ; preds = %13
  %19 = load i8*, i8** %2, align 8
  %20 = load i32, i32* %3, align 4
  %21 = sext i32 %20 to i64
  %22 = getelementptr inbounds i8, i8* %19, i64 %21
  %23 = load i8, i8* %22, align 1
  %24 = sext i8 %23 to i32
  %25 = load i8, i8* %6, align 1
  %26 = sext i8 %25 to i32
  %27 = icmp sgt i32 %24, %26
  br i1 %27, label %28, label %35

28:                                               ; preds = %18
  %29 = load i8*, i8** %2, align 8
  %30 = load i32, i32* %3, align 4
  %31 = sext i32 %30 to i64
  %32 = getelementptr inbounds i8, i8* %29, i64 %31
  %33 = load i8, i8* %32, align 1
  store i8 %33, i8* %6, align 1
  %34 = load i32, i32* %3, align 4
  store i32 %34, i32* %5, align 4
  br label %35

35:                                               ; preds = %28, %18
  br label %36

36:                                               ; preds = %35
  %37 = load i32, i32* %3, align 4
  %38 = add nsw i32 %37, 1
  store i32 %38, i32* %3, align 4
  br label %13

39:                                               ; preds = %13
  %40 = load i32, i32* %5, align 4
  ret i32 %40
}

; Function Attrs: nounwind readonly
declare dso_local i64 @strlen(i8*) #1

; Function Attrs: noinline nounwind uwtable
define dso_local void @main() #0 {
  %1 = alloca i32, align 4
  %2 = alloca i32, align 4
  %3 = alloca i32, align 4
  %4 = alloca i32, align 4
  %5 = alloca [100 x i32], align 16
  %6 = alloca [100 x [50 x i8]], align 16
  %7 = alloca [100 x [50 x i8]], align 16
  store i32 0, i32* %1, align 4
  br label %8

8:                                                ; preds = %25, %0
  %9 = load i32, i32* %1, align 4
  %10 = sext i32 %9 to i64
  %11 = getelementptr inbounds [100 x [50 x i8]], [100 x [50 x i8]]* %6, i64 0, i64 %10
  %12 = getelementptr inbounds [50 x i8], [50 x i8]* %11, i64 0, i64 0
  %13 = call i32 (i8*, ...) bitcast (i32 (...)* @gets to i32 (i8*, ...)*)(i8* %12)
  %14 = load i32, i32* %1, align 4
  %15 = sext i32 %14 to i64
  %16 = getelementptr inbounds [100 x [50 x i8]], [100 x [50 x i8]]* %6, i64 0, i64 %15
  %17 = getelementptr inbounds [50 x i8], [50 x i8]* %16, i64 0, i64 0
  %18 = call i64 @strlen(i8* %17) #3
  %19 = trunc i64 %18 to i32
  %20 = load i32, i32* %1, align 4
  %21 = sext i32 %20 to i64
  %22 = getelementptr inbounds [100 x i32], [100 x i32]* %5, i64 0, i64 %21
  store i32 %19, i32* %22, align 4
  %23 = load i32, i32* %1, align 4
  %24 = add nsw i32 %23, 1
  store i32 %24, i32* %1, align 4
  br label %25

25:                                               ; preds = %8
  %26 = load i32, i32* %1, align 4
  %27 = sub nsw i32 %26, 1
  %28 = sext i32 %27 to i64
  %29 = getelementptr inbounds [100 x i32], [100 x i32]* %5, i64 0, i64 %28
  %30 = load i32, i32* %29, align 4
  %31 = icmp ne i32 %30, 0
  br i1 %31, label %8, label %32

32:                                               ; preds = %25
  %33 = load i32, i32* %1, align 4
  %34 = sub nsw i32 %33, 1
  store i32 %34, i32* %2, align 4
  store i32 0, i32* %1, align 4
  br label %35

35:                                               ; preds = %149, %32
  %36 = load i32, i32* %1, align 4
  %37 = load i32, i32* %2, align 4
  %38 = icmp slt i32 %36, %37
  br i1 %38, label %39, label %152

39:                                               ; preds = %35
  %40 = load i32, i32* %1, align 4
  %41 = sext i32 %40 to i64
  %42 = getelementptr inbounds [100 x [50 x i8]], [100 x [50 x i8]]* %6, i64 0, i64 %41
  %43 = getelementptr inbounds [50 x i8], [50 x i8]* %42, i64 0, i64 0
  %44 = call i32 @f(i8* %43)
  store i32 %44, i32* %4, align 4
  store i32 0, i32* %3, align 4
  br label %45

45:                                               ; preds = %145, %39
  %46 = load i32, i32* %3, align 4
  %47 = icmp slt i32 %46, 50
  br i1 %47, label %48, label %148

48:                                               ; preds = %45
  %49 = load i32, i32* %3, align 4
  %50 = load i32, i32* %4, align 4
  %51 = add nsw i32 %50, 1
  %52 = icmp slt i32 %49, %51
  br i1 %52, label %53, label %67

53:                                               ; preds = %48
  %54 = load i32, i32* %1, align 4
  %55 = sext i32 %54 to i64
  %56 = getelementptr inbounds [100 x [50 x i8]], [100 x [50 x i8]]* %6, i64 0, i64 %55
  %57 = load i32, i32* %3, align 4
  %58 = sext i32 %57 to i64
  %59 = getelementptr inbounds [50 x i8], [50 x i8]* %56, i64 0, i64 %58
  %60 = load i8, i8* %59, align 1
  %61 = load i32, i32* %1, align 4
  %62 = sext i32 %61 to i64
  %63 = getelementptr inbounds [100 x [50 x i8]], [100 x [50 x i8]]* %7, i64 0, i64 %62
  %64 = load i32, i32* %3, align 4
  %65 = sext i32 %64 to i64
  %66 = getelementptr inbounds [50 x i8], [50 x i8]* %63, i64 0, i64 %65
  store i8 %60, i8* %66, align 1
  br label %144

67:                                               ; preds = %48
  %68 = load i32, i32* %3, align 4
  %69 = load i32, i32* %4, align 4
  %70 = icmp sgt i32 %68, %69
  br i1 %70, label %71, label %98

71:                                               ; preds = %67
  %72 = load i32, i32* %3, align 4
  %73 = load i32, i32* %4, align 4
  %74 = add nsw i32 %73, 4
  %75 = icmp slt i32 %72, %74
  br i1 %75, label %76, label %98

76:                                               ; preds = %71
  %77 = load i32, i32* %1, align 4
  %78 = sext i32 %77 to i64
  %79 = getelementptr inbounds [100 x [50 x i8]], [100 x [50 x i8]]* %6, i64 0, i64 %78
  %80 = load i32, i32* %1, align 4
  %81 = sext i32 %80 to i64
  %82 = getelementptr inbounds [100 x i32], [100 x i32]* %5, i64 0, i64 %81
  %83 = load i32, i32* %82, align 4
  %84 = load i32, i32* %3, align 4
  %85 = add nsw i32 %83, %84
  %86 = sub nsw i32 %85, 4
  %87 = load i32, i32* %4, align 4
  %88 = sub nsw i32 %86, %87
  %89 = sext i32 %88 to i64
  %90 = getelementptr inbounds [50 x i8], [50 x i8]* %79, i64 0, i64 %89
  %91 = load i8, i8* %90, align 1
  %92 = load i32, i32* %1, align 4
  %93 = sext i32 %92 to i64
  %94 = getelementptr inbounds [100 x [50 x i8]], [100 x [50 x i8]]* %7, i64 0, i64 %93
  %95 = load i32, i32* %3, align 4
  %96 = sext i32 %95 to i64
  %97 = getelementptr inbounds [50 x i8], [50 x i8]* %94, i64 0, i64 %96
  store i8 %91, i8* %97, align 1
  br label %143

98:                                               ; preds = %71, %67
  %99 = load i32, i32* %3, align 4
  %100 = load i32, i32* %4, align 4
  %101 = add nsw i32 %100, 3
  %102 = icmp sgt i32 %99, %101
  br i1 %102, label %103, label %126

103:                                              ; preds = %98
  %104 = load i32, i32* %3, align 4
  %105 = load i32, i32* %1, align 4
  %106 = sext i32 %105 to i64
  %107 = getelementptr inbounds [100 x i32], [100 x i32]* %5, i64 0, i64 %106
  %108 = load i32, i32* %107, align 4
  %109 = sub nsw i32 %108, 1
  %110 = icmp slt i32 %104, %109
  br i1 %110, label %111, label %126

111:                                              ; preds = %103
  %112 = load i32, i32* %1, align 4
  %113 = sext i32 %112 to i64
  %114 = getelementptr inbounds [100 x [50 x i8]], [100 x [50 x i8]]* %6, i64 0, i64 %113
  %115 = load i32, i32* %3, align 4
  %116 = sub nsw i32 %115, 3
  %117 = sext i32 %116 to i64
  %118 = getelementptr inbounds [50 x i8], [50 x i8]* %114, i64 0, i64 %117
  %119 = load i8, i8* %118, align 1
  %120 = load i32, i32* %1, align 4
  %121 = sext i32 %120 to i64
  %122 = getelementptr inbounds [100 x [50 x i8]], [100 x [50 x i8]]* %7, i64 0, i64 %121
  %123 = load i32, i32* %3, align 4
  %124 = sext i32 %123 to i64
  %125 = getelementptr inbounds [50 x i8], [50 x i8]* %122, i64 0, i64 %124
  store i8 %119, i8* %125, align 1
  br label %142

126:                                              ; preds = %103, %98
  %127 = load i32, i32* %3, align 4
  %128 = load i32, i32* %1, align 4
  %129 = sext i32 %128 to i64
  %130 = getelementptr inbounds [100 x i32], [100 x i32]* %5, i64 0, i64 %129
  %131 = load i32, i32* %130, align 4
  %132 = sub nsw i32 %131, 1
  %133 = icmp sge i32 %127, %132
  br i1 %133, label %134, label %141

134:                                              ; preds = %126
  %135 = load i32, i32* %1, align 4
  %136 = sext i32 %135 to i64
  %137 = getelementptr inbounds [100 x [50 x i8]], [100 x [50 x i8]]* %7, i64 0, i64 %136
  %138 = load i32, i32* %3, align 4
  %139 = sext i32 %138 to i64
  %140 = getelementptr inbounds [50 x i8], [50 x i8]* %137, i64 0, i64 %139
  store i8 0, i8* %140, align 1
  br label %141

141:                                              ; preds = %134, %126
  br label %142

142:                                              ; preds = %141, %111
  br label %143

143:                                              ; preds = %142, %76
  br label %144

144:                                              ; preds = %143, %53
  br label %145

145:                                              ; preds = %144
  %146 = load i32, i32* %3, align 4
  %147 = add nsw i32 %146, 1
  store i32 %147, i32* %3, align 4
  br label %45

148:                                              ; preds = %45
  br label %149

149:                                              ; preds = %148
  %150 = load i32, i32* %1, align 4
  %151 = add nsw i32 %150, 1
  store i32 %151, i32* %1, align 4
  br label %35

152:                                              ; preds = %35
  store i32 0, i32* %1, align 4
  br label %153

153:                                              ; preds = %163, %152
  %154 = load i32, i32* %1, align 4
  %155 = load i32, i32* %2, align 4
  %156 = icmp slt i32 %154, %155
  br i1 %156, label %157, label %166

157:                                              ; preds = %153
  %158 = load i32, i32* %1, align 4
  %159 = sext i32 %158 to i64
  %160 = getelementptr inbounds [100 x [50 x i8]], [100 x [50 x i8]]* %7, i64 0, i64 %159
  %161 = getelementptr inbounds [50 x i8], [50 x i8]* %160, i64 0, i64 0
  %162 = call i32 (i8*, ...) @printf(i8* getelementptr inbounds ([4 x i8], [4 x i8]* @.str, i64 0, i64 0), i8* %161)
  br label %163

163:                                              ; preds = %157
  %164 = load i32, i32* %1, align 4
  %165 = add nsw i32 %164, 1
  store i32 %165, i32* %1, align 4
  br label %153

166:                                              ; preds = %153
  ret void
}

declare dso_local i32 @gets(...) #2

declare dso_local i32 @printf(i8*, ...) #2


!llvm.module.flags = !{!0}
!llvm.ident = !{!1}

!0 = !{i32 1, !"wchar_size", i32 4}
!1 = !{!"clang version 10.0.0-4ubuntu1 "}
